; Function Attrs: mustprogress nounwind uwtable
define hidden noundef ptr @_ZN11StringTable6internEP6SymbolP10JavaThread(ptr noundef %0, ptr noundef %1) local_unnamed_addr #0 align 2 {
  %3 = alloca i32, align 4
  %4 = icmp eq ptr %0, null
  br i1 %4, label %_ZN12ResourceMarkD2Ev.exit, label %5

5:                                                ; preds = %2
  %6 = getelementptr inbounds i8, ptr %1, i64 800
  %7 = load ptr, ptr %6, align 8
  %8 = getelementptr inbounds i8, ptr %7, i64 24
  %9 = load ptr, ptr %8, align 8
  %10 = getelementptr inbounds i8, ptr %7, i64 32
  %11 = load ptr, ptr %10, align 8
  %12 = getelementptr inbounds i8, ptr %7, i64 40
  %13 = load ptr, ptr %12, align 8
  %14 = getelementptr inbounds i8, ptr %7, i64 8
  %15 = load i64, ptr %14, align 8
  %16 = call noundef ptr @_ZNK6Symbol10as_unicodeERi(ptr noundef nonnull align 4 dereferenceable(8) %0, ptr noundef nonnull align 4 dereferenceable(4) %3) #17
  %17 = load i32, ptr %3, align 4
  %18 = icmp sgt i32 %17, 0
  br i1 %18, label %.lr.ph.i.i, label %_ZN16java_lang_String9hash_codeEPKti.exit.i

.lr.ph.i.i:                                       ; preds = %5, %.lr.ph.i.i
  %.08.i.i = phi i32 [ %23, %.lr.ph.i.i ], [ 0, %5 ]
  %.047.i.i = phi i32 [ %19, %.lr.ph.i.i ], [ %17, %5 ]
  %.056.i.i = phi ptr [ %24, %.lr.ph.i.i ], [ %16, %5 ]
  %19 = add nsw i32 %.047.i.i, -1
  %20 = mul i32 %.08.i.i, 31
  %21 = load i16, ptr %.056.i.i, align 2
  %22 = zext i16 %21 to i32
  %23 = add i32 %20, %22
  %24 = getelementptr inbounds i8, ptr %.056.i.i, i64 2
  %25 = icmp ugt i32 %.047.i.i, 1
  br i1 %25, label %.lr.ph.i.i, label %_ZN16java_lang_String9hash_codeEPKti.exit.i, !llvm.loop !12

_ZN16java_lang_String9hash_codeEPKti.exit.i:      ; preds = %.lr.ph.i.i, %5
  %.0.lcssa.i.i = phi i32 [ 0, %5 ], [ %23, %.lr.ph.i.i ]
  %26 = call noundef ptr @_ZNK16CompactHashtableIPKtP7oopDescXadL_ZN11StringTable34read_string_from_compact_hashtableEPhjEEXadL_ZN16java_lang_String6equalsES3_S1_iEEE6lookupES1_ji(ptr noundef nonnull align 8 dereferenceable(32) @_ZL13_shared_table, ptr noundef %16, i32 noundef %.0.lcssa.i.i, i32 noundef %17)
  %.not.i = icmp eq ptr %26, null
  br i1 %.not.i, label %27, label %_ZN11StringTable6internE6HandlePKtiP10JavaThread.exit

27:                                               ; preds = %_ZN16java_lang_String9hash_codeEPKti.exit.i
  %28 = load volatile i8, ptr @_alt_hash, align 1
  %29 = trunc i8 %28 to i1
  br i1 %29, label %30, label %33

30:                                               ; preds = %27
  %31 = load i64, ptr @_ZL14_alt_hash_seed, align 8
  %32 = call noundef i32 @_ZN10AltHashing14halfsiphash_32EmPKti(i64 noundef %31, ptr noundef %16, i32 noundef %17) #17
  br label %33

33:                                               ; preds = %30, %27
  %.019.i = phi i32 [ %32, %30 ], [ %.0.lcssa.i.i, %27 ]
  %34 = zext i32 %.019.i to i64
  %35 = call noundef ptr @_ZN11StringTable9do_lookupEPKtim(ptr noundef %16, i32 noundef %17, i64 noundef %34)
  %.not22.i = icmp eq ptr %35, null
  br i1 %.not22.i, label %36, label %_ZN11StringTable6internE6HandlePKtiP10JavaThread.exit

36:                                               ; preds = %33
  %37 = call noundef ptr @_ZN11StringTable9do_internE6HandlePKtimP10JavaThread(ptr null, ptr noundef %16, i32 noundef %17, i64 noundef %34, ptr noundef %1)
  br label %_ZN11StringTable6internE6HandlePKtiP10JavaThread.exit

_ZN11StringTable6internE6HandlePKtiP10JavaThread.exit: ; preds = %_ZN16java_lang_String9hash_codeEPKti.exit.i, %33, %36
  %.0.i = phi ptr [ %37, %36 ], [ %26, %_ZN16java_lang_String9hash_codeEPKti.exit.i ], [ %35, %33 ]
  %38 = getelementptr inbounds i8, ptr %1, i64 8
  %39 = load ptr, ptr %38, align 8
  %.not = icmp eq ptr %39, null
  %. = select i1 %.not, ptr %.0.i, ptr null
  %40 = load ptr, ptr %9, align 8
  %.not.i.i.i.i = icmp eq ptr %40, null
  br i1 %.not.i.i.i.i, label %42, label %41

41:                                               ; preds = %_ZN11StringTable6internE6HandlePKtiP10JavaThread.exit
  call void @_ZN5Arena17set_size_in_bytesEm(ptr noundef nonnull align 8 dereferenceable(48) %7, i64 noundef %15) #17
  call void @_ZN5Chunk9next_chopEPS_(ptr noundef nonnull %9) #17
  br label %42

42:                                               ; preds = %41, %_ZN11StringTable6internE6HandlePKtiP10JavaThread.exit
  %43 = load ptr, ptr %10, align 8
  %.not8.i.i.i.i = icmp eq ptr %43, %11
  br i1 %.not8.i.i.i.i, label %_ZN12ResourceMarkD2Ev.exit, label %44

44:                                               ; preds = %42
  store ptr %9, ptr %8, align 8
  store ptr %11, ptr %10, align 8
  store ptr %13, ptr %12, align 8
  br label %_ZN12ResourceMarkD2Ev.exit

_ZN12ResourceMarkD2Ev.exit:                       ; preds = %44, %42, %2
  %.1 = phi ptr [ null, %2 ], [ %., %42 ], [ %., %44 ]
  ret ptr %.1
}